TN:
SF:/home/mimitrenser/vxWorks/TemperatureSensor/source/TemperatureSensor/evaluateData.c
FN:84,evaluateTemperature
FNDA:12,evaluateTemperature
FNF:1
FNH:1
DA:84,12
DA:86,12
DA:88,12
DA:90,2
DA:94,10
DA:96,10
DA:98,4
DA:100,6
DA:102,4
DA:106,2
DA:107,2
DA:111,12
LF:12
LH:12
end_of_record
TN:
SF:/home/mimitrenser/vxWorks/TemperatureSensor/source/TemperatureSensor/logError.c
FN:75,logError
FNDA:4,logError
FNF:1
FNH:1
DA:75,4
DA:77,4
DA:79,4
DA:81,2
DA:85,2
DA:86,2
DA:89,4
LF:7
LH:7
end_of_record
TN:
SF:/home/mimitrenser/vxWorks/TemperatureSensor/source/TemperatureSensor/temperatureSensor.c
FN:83,getTemperature
FNDA:4,getTemperature
FNF:1
FNH:1
DA:83,4
DA:85,4
DA:87,4
DA:89,2
DA:94,2
DA:102,2
DA:106,4
LF:7
LH:7
end_of_record
TN:
SF:/home/mimitrenser/vxWorks/TemperatureSensor/test/TemperatureSensor/hltc_temperatureSensor.cpp
FN:10,_ZN40EvaluateTempTest_HLTC_1_NullPointer_TestC2Ev
FN:10,_ZN40EvaluateTempTest_HLTC_1_NullPointer_Test8TestBodyEv
FN:10,_ZN40EvaluateTempTest_HLTC_1_NullPointer_TestD2Ev
FN:10,_ZN40EvaluateTempTest_HLTC_1_NullPointer_TestD0Ev
FN:16,_ZN46EvaluateTempTest_HLTC_3_BoundaryViolation_TestC2Ev
FN:16,_ZN46EvaluateTempTest_HLTC_3_BoundaryViolation_TestD0Ev
FN:16,_ZN46EvaluateTempTest_HLTC_3_BoundaryViolation_TestD2Ev
FN:16,_ZN46EvaluateTempTest_HLTC_3_BoundaryViolation_Test8TestBodyEv
FN:27,_ZN47EvaluateTempTest_HLTC_2_ThresholdViolation_TestC2Ev
FN:27,_ZN47EvaluateTempTest_HLTC_2_ThresholdViolation_TestD0Ev
FN:27,_ZN47EvaluateTempTest_HLTC_2_ThresholdViolation_TestD2Ev
FN:27,_ZN47EvaluateTempTest_HLTC_2_ThresholdViolation_Test8TestBodyEv
FN:38,_ZN36EvaluateTempTest_HLTC_4_Success_TestC2Ev
FN:38,_ZN36EvaluateTempTest_HLTC_4_Success_TestD2Ev
FN:38,_ZN36EvaluateTempTest_HLTC_4_Success_Test8TestBodyEv
FN:38,_ZN36EvaluateTempTest_HLTC_4_Success_TestD0Ev
FN:45,_ZN36LogErrorTest_HLTC_1_NullMessage_TestD2Ev
FN:45,_ZN36LogErrorTest_HLTC_1_NullMessage_TestD0Ev
FN:45,_ZN36LogErrorTest_HLTC_1_NullMessage_Test8TestBodyEv
FN:45,_ZN36LogErrorTest_HLTC_1_NullMessage_TestC2Ev
FN:51,_ZN37LogErrorTest_HLTC_2_ValidMessage_TestD0Ev
FN:51,_ZN37LogErrorTest_HLTC_2_ValidMessage_TestD2Ev
FN:51,_ZN37LogErrorTest_HLTC_2_ValidMessage_Test8TestBodyEv
FN:51,_ZN37LogErrorTest_HLTC_2_ValidMessage_TestC2Ev
FN:58,_ZN35GetTempTest_HLTC_1_NullPointer_TestC2Ev
FN:58,_ZN35GetTempTest_HLTC_1_NullPointer_TestD0Ev
FN:58,_ZN35GetTempTest_HLTC_1_NullPointer_Test8TestBodyEv
FN:58,_ZN35GetTempTest_HLTC_1_NullPointer_TestD2Ev
FN:64,_ZN39GetTempTest_HLTC_2_Readtemperature_TestD0Ev
FN:64,_ZN39GetTempTest_HLTC_2_Readtemperature_TestC2Ev
FN:64,_ZN39GetTempTest_HLTC_2_Readtemperature_Test8TestBodyEv
FN:64,_ZN39GetTempTest_HLTC_2_Readtemperature_TestD2Ev
FNDA:1,_ZN39GetTempTest_HLTC_2_Readtemperature_Test8TestBodyEv
FNDA:1,_ZN40EvaluateTempTest_HLTC_1_NullPointer_TestD2Ev
FNDA:1,_ZN37LogErrorTest_HLTC_2_ValidMessage_Test8TestBodyEv
FNDA:1,_ZN36LogErrorTest_HLTC_1_NullMessage_TestC2Ev
FNDA:1,_ZN40EvaluateTempTest_HLTC_1_NullPointer_TestD0Ev
FNDA:1,_ZN37LogErrorTest_HLTC_2_ValidMessage_TestC2Ev
FNDA:1,_ZN39GetTempTest_HLTC_2_Readtemperature_TestD2Ev
FNDA:1,_ZN39GetTempTest_HLTC_2_Readtemperature_TestD0Ev
FNDA:1,_ZN36EvaluateTempTest_HLTC_4_Success_TestD0Ev
FNDA:1,_ZN35GetTempTest_HLTC_1_NullPointer_Test8TestBodyEv
FNDA:1,_ZN47EvaluateTempTest_HLTC_2_ThresholdViolation_TestD0Ev
FNDA:1,_ZN46EvaluateTempTest_HLTC_3_BoundaryViolation_Test8TestBodyEv
FNDA:1,_ZN35GetTempTest_HLTC_1_NullPointer_TestD0Ev
FNDA:1,_ZN40EvaluateTempTest_HLTC_1_NullPointer_Test8TestBodyEv
FNDA:1,_ZN36EvaluateTempTest_HLTC_4_Success_Test8TestBodyEv
FNDA:1,_ZN46EvaluateTempTest_HLTC_3_BoundaryViolation_TestD2Ev
FNDA:1,_ZN39GetTempTest_HLTC_2_Readtemperature_TestC2Ev
FNDA:1,_ZN47EvaluateTempTest_HLTC_2_ThresholdViolation_Test8TestBodyEv
FNDA:1,_ZN35GetTempTest_HLTC_1_NullPointer_TestD2Ev
FNDA:1,_ZN47EvaluateTempTest_HLTC_2_ThresholdViolation_TestD2Ev
FNDA:1,_ZN36EvaluateTempTest_HLTC_4_Success_TestC2Ev
FNDA:1,_ZN36EvaluateTempTest_HLTC_4_Success_TestD2Ev
FNDA:1,_ZN36LogErrorTest_HLTC_1_NullMessage_Test8TestBodyEv
FNDA:1,_ZN47EvaluateTempTest_HLTC_2_ThresholdViolation_TestC2Ev
FNDA:1,_ZN35GetTempTest_HLTC_1_NullPointer_TestC2Ev
FNDA:1,_ZN37LogErrorTest_HLTC_2_ValidMessage_TestD2Ev
FNDA:1,_ZN37LogErrorTest_HLTC_2_ValidMessage_TestD0Ev
FNDA:1,_ZN36LogErrorTest_HLTC_1_NullMessage_TestD2Ev
FNDA:1,_ZN46EvaluateTempTest_HLTC_3_BoundaryViolation_TestC2Ev
FNDA:1,_ZN46EvaluateTempTest_HLTC_3_BoundaryViolation_TestD0Ev
FNDA:1,_ZN40EvaluateTempTest_HLTC_1_NullPointer_TestC2Ev
FNDA:1,_ZN36LogErrorTest_HLTC_1_NullMessage_TestD0Ev
FNF:32
FNH:32
DA:10,4
DA:12,1
DA:13,1
DA:14,1
DA:16,4
DA:18,1
DA:19,1
DA:20,1
DA:22,1
DA:23,1
DA:24,1
DA:25,1
DA:27,4
DA:29,1
DA:30,1
DA:31,1
DA:33,1
DA:34,1
DA:35,1
DA:36,1
DA:38,4
DA:40,1
DA:41,1
DA:42,1
DA:43,1
DA:45,4
DA:47,1
DA:48,1
DA:49,1
DA:51,4
DA:53,1
DA:54,1
DA:55,1
DA:56,1
DA:58,4
DA:60,1
DA:61,1
DA:62,1
DA:64,4
DA:67,1
DA:68,1
DA:69,1
LF:42
LH:42
end_of_record
TN:
SF:/home/mimitrenser/vxWorks/TemperatureSensor/test/TemperatureSensor/lltc_temperatureSensor.cpp
FN:10,_ZN40EvaluateTempTest_LLTC_1_NullPointer_TestD0Ev
FN:10,_ZN40EvaluateTempTest_LLTC_1_NullPointer_Test8TestBodyEv
FN:10,_ZN40EvaluateTempTest_LLTC_1_NullPointer_TestD2Ev
FN:10,_ZN40EvaluateTempTest_LLTC_1_NullPointer_TestC2Ev
FN:16,_ZN46EvaluateTempTest_LLTC_2_BoundaryViolation_TestD2Ev
FN:16,_ZN46EvaluateTempTest_LLTC_2_BoundaryViolation_Test8TestBodyEv
FN:16,_ZN46EvaluateTempTest_LLTC_2_BoundaryViolation_TestD0Ev
FN:16,_ZN46EvaluateTempTest_LLTC_2_BoundaryViolation_TestC2Ev
FN:27,_ZN47EvaluateTempTest_LLTC_3_ThresholdViolation_TestD2Ev
FN:27,_ZN47EvaluateTempTest_LLTC_3_ThresholdViolation_Test8TestBodyEv
FN:27,_ZN47EvaluateTempTest_LLTC_3_ThresholdViolation_TestC2Ev
FN:27,_ZN47EvaluateTempTest_LLTC_3_ThresholdViolation_TestD0Ev
FN:38,_ZN36EvaluateTempTest_LLTC_4_Success_TestC2Ev
FN:38,_ZN36EvaluateTempTest_LLTC_4_Success_TestD0Ev
FN:38,_ZN36EvaluateTempTest_LLTC_4_Success_Test8TestBodyEv
FN:38,_ZN36EvaluateTempTest_LLTC_4_Success_TestD2Ev
FN:45,_ZN36LogErrorTest_LLTC_1_NullMessage_TestD2Ev
FN:45,_ZN36LogErrorTest_LLTC_1_NullMessage_TestD0Ev
FN:45,_ZN36LogErrorTest_LLTC_1_NullMessage_TestC2Ev
FN:45,_ZN36LogErrorTest_LLTC_1_NullMessage_Test8TestBodyEv
FN:51,_ZN37LogErrorTest_LLTC_2_ValidMessage_TestD0Ev
FN:51,_ZN37LogErrorTest_LLTC_2_ValidMessage_TestD2Ev
FN:51,_ZN37LogErrorTest_LLTC_2_ValidMessage_TestC2Ev
FN:51,_ZN37LogErrorTest_LLTC_2_ValidMessage_Test8TestBodyEv
FN:58,_ZN35GetTempTest_LLTC_1_NullPointer_TestD0Ev
FN:58,_ZN35GetTempTest_LLTC_1_NullPointer_TestC2Ev
FN:58,_ZN35GetTempTest_LLTC_1_NullPointer_TestD2Ev
FN:58,_ZN35GetTempTest_LLTC_1_NullPointer_Test8TestBodyEv
FN:64,_ZN39GetTempTest_LLTC_2_Readtemperature_Test8TestBodyEv
FN:64,_ZN39GetTempTest_LLTC_2_Readtemperature_TestD0Ev
FN:64,_ZN39GetTempTest_LLTC_2_Readtemperature_TestC2Ev
FN:64,_ZN39GetTempTest_LLTC_2_Readtemperature_TestD2Ev
FNDA:1,_ZN36LogErrorTest_LLTC_1_NullMessage_TestD2Ev
FNDA:1,_ZN46EvaluateTempTest_LLTC_2_BoundaryViolation_Test8TestBodyEv
FNDA:1,_ZN39GetTempTest_LLTC_2_Readtemperature_Test8TestBodyEv
FNDA:1,_ZN39GetTempTest_LLTC_2_Readtemperature_TestD0Ev
FNDA:1,_ZN47EvaluateTempTest_LLTC_3_ThresholdViolation_TestC2Ev
FNDA:1,_ZN47EvaluateTempTest_LLTC_3_ThresholdViolation_TestD0Ev
FNDA:1,_ZN35GetTempTest_LLTC_1_NullPointer_TestD0Ev
FNDA:1,_ZN47EvaluateTempTest_LLTC_3_ThresholdViolation_Test8TestBodyEv
FNDA:1,_ZN35GetTempTest_LLTC_1_NullPointer_TestC2Ev
FNDA:1,_ZN40EvaluateTempTest_LLTC_1_NullPointer_TestD2Ev
FNDA:1,_ZN40EvaluateTempTest_LLTC_1_NullPointer_TestD0Ev
FNDA:1,_ZN46EvaluateTempTest_LLTC_2_BoundaryViolation_TestD2Ev
FNDA:1,_ZN40EvaluateTempTest_LLTC_1_NullPointer_Test8TestBodyEv
FNDA:1,_ZN37LogErrorTest_LLTC_2_ValidMessage_TestD2Ev
FNDA:1,_ZN36EvaluateTempTest_LLTC_4_Success_TestC2Ev
FNDA:1,_ZN47EvaluateTempTest_LLTC_3_ThresholdViolation_TestD2Ev
FNDA:1,_ZN37LogErrorTest_LLTC_2_ValidMessage_TestD0Ev
FNDA:1,_ZN36LogErrorTest_LLTC_1_NullMessage_Test8TestBodyEv
FNDA:1,_ZN36EvaluateTempTest_LLTC_4_Success_TestD2Ev
FNDA:1,_ZN37LogErrorTest_LLTC_2_ValidMessage_Test8TestBodyEv
FNDA:1,_ZN39GetTempTest_LLTC_2_Readtemperature_TestD2Ev
FNDA:1,_ZN35GetTempTest_LLTC_1_NullPointer_Test8TestBodyEv
FNDA:1,_ZN46EvaluateTempTest_LLTC_2_BoundaryViolation_TestC2Ev
FNDA:1,_ZN40EvaluateTempTest_LLTC_1_NullPointer_TestC2Ev
FNDA:1,_ZN36EvaluateTempTest_LLTC_4_Success_Test8TestBodyEv
FNDA:1,_ZN46EvaluateTempTest_LLTC_2_BoundaryViolation_TestD0Ev
FNDA:1,_ZN36LogErrorTest_LLTC_1_NullMessage_TestC2Ev
FNDA:1,_ZN35GetTempTest_LLTC_1_NullPointer_TestD2Ev
FNDA:1,_ZN37LogErrorTest_LLTC_2_ValidMessage_TestC2Ev
FNDA:1,_ZN36EvaluateTempTest_LLTC_4_Success_TestD0Ev
FNDA:1,_ZN39GetTempTest_LLTC_2_Readtemperature_TestC2Ev
FNDA:1,_ZN36LogErrorTest_LLTC_1_NullMessage_TestD0Ev
FNF:32
FNH:32
DA:10,4
DA:12,1
DA:13,1
DA:14,1
DA:16,4
DA:18,1
DA:19,1
DA:20,1
DA:22,1
DA:23,1
DA:24,1
DA:25,1
DA:27,4
DA:29,1
DA:30,1
DA:31,1
DA:33,1
DA:34,1
DA:35,1
DA:36,1
DA:38,4
DA:40,1
DA:41,1
DA:42,1
DA:43,1
DA:45,4
DA:47,1
DA:48,1
DA:49,1
DA:51,4
DA:53,1
DA:54,1
DA:55,1
DA:56,1
DA:58,4
DA:60,1
DA:61,1
DA:62,1
DA:64,4
DA:67,1
DA:68,1
DA:69,1
LF:42
LH:42
end_of_record
